; Function Attrs: nounwind uwtable
define internal fastcc noalias nonnull ptr @_init_l___auto____x40_Lean_Meta_Tactic_Simp_SimpTheorems___hyg_5653____closed__18() unnamed_addr #1 {
  %1 = load ptr, ptr @l___auto____x40_Lean_Meta_Tactic_Simp_SimpTheorems___hyg_5653____closed__17, align 8, !tbaa !9
  tail call void @lean_inc_heartbeat() #6
  %2 = tail call noalias ptr @mi_malloc_small(i64 noundef 24) #6
  %3 = icmp eq ptr %2, null
  br i1 %3, label %4, label %lean_alloc_ctor.exit

4:                                                ; preds = %0
  tail call void @lean_internal_panic_out_of_memory() #7
  unreachable

lean_alloc_ctor.exit:                             ; preds = %0
  %5 = getelementptr inbounds nuw i8, ptr %2, i64 4
  store i32 1, ptr %2, align 4, !tbaa !4
  store i32 33685528, ptr %5, align 4
  %6 = getelementptr inbounds nuw i8, ptr %2, i64 8
  store ptr inttoptr (i64 5 to ptr), ptr %6, align 8, !tbaa !9
  %7 = getelementptr inbounds nuw i8, ptr %2, i64 16
  store ptr %1, ptr %7, align 8, !tbaa !9
  ret ptr %2
}